target datalayout = "e-m:e-p270:32:32-p271:32:32-p272:64:64-i64:64-i128:128-f80:128-n8:16:32:64-S128"
target triple = "x86_64-pc-linux-gnu"

%"class.icu_77::RegexMatcher" = type { %"class.icu_77::UObject", ptr, ptr, ptr, ptr, ptr, i64, i32, i64, i64, i64, i64, i64, i64, i64, i64, i8, i8, i8, i64, i64, i64, i64, i8, i8, ptr, ptr, ptr, [8 x i64], i32, i32, i32, i32, ptr, ptr, ptr, ptr, i8, i8, i32, ptr, ptr }
%"class.icu_77::UObject" = type { ptr }
%"class.icu_77::RegexPattern" = type { %"class.icu_77::UObject", ptr, ptr, i32, ptr, %"class.icu_77::UnicodeString", ptr, ptr, i32, i32, i32, i32, ptr, i32, i32, i32, ptr, i32, ptr, i8, ptr }
%"class.icu_77::UnicodeString" = type { %"class.icu_77::Replaceable", %"union.icu_77::UnicodeString::StackBufferOrFields" }
%"class.icu_77::Replaceable" = type { %"class.icu_77::UObject" }
%"union.icu_77::UnicodeString::StackBufferOrFields" = type { %struct.anon.0, [32 x i8] }
%struct.anon.0 = type { i16, i32, i32, ptr }

; Function Attrs: mustprogress nounwind uwtable
define void @_ZN6icu_7712RegexMatcher19resetPreserveRegionEv(ptr noundef nonnull align 8 dereferenceable(336) %0) #0 align 2 {
  %2 = alloca ptr, align 8
  store ptr %0, ptr %2, align 8, !tbaa !23
  %3 = load ptr, ptr %2, align 8
  %4 = getelementptr inbounds nuw %"class.icu_77::RegexMatcher", ptr %3, i32 0, i32 19
  store i64 0, ptr %4, align 8, !tbaa !67
  %5 = getelementptr inbounds nuw %"class.icu_77::RegexMatcher", ptr %3, i32 0, i32 20
  store i64 0, ptr %5, align 8, !tbaa !68
  %6 = getelementptr inbounds nuw %"class.icu_77::RegexMatcher", ptr %3, i32 0, i32 21
  store i64 -1, ptr %6, align 8, !tbaa !69
  %7 = getelementptr inbounds nuw %"class.icu_77::RegexMatcher", ptr %3, i32 0, i32 22
  store i64 0, ptr %7, align 8, !tbaa !70
  %8 = getelementptr inbounds nuw %"class.icu_77::RegexMatcher", ptr %3, i32 0, i32 18
  store i8 0, ptr %8, align 2, !tbaa !66
  %9 = getelementptr inbounds nuw %"class.icu_77::RegexMatcher", ptr %3, i32 0, i32 23
  store i8 0, ptr %9, align 8, !tbaa !71
  %10 = getelementptr inbounds nuw %"class.icu_77::RegexMatcher", ptr %3, i32 0, i32 24
  store i8 0, ptr %10, align 1, !tbaa !72
  %11 = getelementptr inbounds nuw %"class.icu_77::RegexMatcher", ptr %3, i32 0, i32 30
  store i32 0, ptr %11, align 4, !tbaa !76
  %12 = getelementptr inbounds nuw %"class.icu_77::RegexMatcher", ptr %3, i32 0, i32 31
  store i32 10000, ptr %12, align 8, !tbaa !77
  ret void
}

; Function Attrs: mustprogress uwtable
define noundef nonnull align 8 dereferenceable(336) ptr @_ZN6icu_7712RegexMatcher5resetEv(ptr noundef nonnull align 8 dereferenceable(336) %0) unnamed_addr #1 align 2 {
  %2 = alloca ptr, align 8
  store ptr %0, ptr %2, align 8, !tbaa !23
  %3 = load ptr, ptr %2, align 8
  %4 = getelementptr inbounds nuw %"class.icu_77::RegexMatcher", ptr %3, i32 0, i32 8
  store i64 0, ptr %4, align 8, !tbaa !56
  %5 = getelementptr inbounds nuw %"class.icu_77::RegexMatcher", ptr %3, i32 0, i32 6
  %6 = load i64, ptr %5, align 8, !tbaa !90
  %7 = getelementptr inbounds nuw %"class.icu_77::RegexMatcher", ptr %3, i32 0, i32 9
  store i64 %6, ptr %7, align 8, !tbaa !57
  %8 = getelementptr inbounds nuw %"class.icu_77::RegexMatcher", ptr %3, i32 0, i32 14
  store i64 0, ptr %8, align 8, !tbaa !62
  %9 = getelementptr inbounds nuw %"class.icu_77::RegexMatcher", ptr %3, i32 0, i32 6
  %10 = load i64, ptr %9, align 8, !tbaa !90
  %11 = getelementptr inbounds nuw %"class.icu_77::RegexMatcher", ptr %3, i32 0, i32 15
  store i64 %10, ptr %11, align 8, !tbaa !63
  %12 = getelementptr inbounds nuw %"class.icu_77::RegexMatcher", ptr %3, i32 0, i32 10
  store i64 0, ptr %12, align 8, !tbaa !58
  %13 = getelementptr inbounds nuw %"class.icu_77::RegexMatcher", ptr %3, i32 0, i32 6
  %14 = load i64, ptr %13, align 8, !tbaa !90
  %15 = getelementptr inbounds nuw %"class.icu_77::RegexMatcher", ptr %3, i32 0, i32 11
  store i64 %14, ptr %15, align 8, !tbaa !59
  %16 = getelementptr inbounds nuw %"class.icu_77::RegexMatcher", ptr %3, i32 0, i32 12
  store i64 0, ptr %16, align 8, !tbaa !60
  %17 = getelementptr inbounds nuw %"class.icu_77::RegexMatcher", ptr %3, i32 0, i32 6
  %18 = load i64, ptr %17, align 8, !tbaa !90
  %19 = getelementptr inbounds nuw %"class.icu_77::RegexMatcher", ptr %3, i32 0, i32 13
  store i64 %18, ptr %19, align 8, !tbaa !61
  call void @_ZN6icu_7712RegexMatcher19resetPreserveRegionEv(ptr noundef nonnull align 8 dereferenceable(336) %3)
  ret ptr %3
}

; Function Attrs: inlinehint mustprogress nounwind uwtable
define internal noundef signext i8 @_ZL9U_FAILURE10UErrorCode(i32 noundef %0) #2 {
  %2 = alloca i32, align 4
  store i32 %0, ptr %2, align 4, !tbaa !15
  %3 = load i32, ptr %2, align 4, !tbaa !15
  %4 = icmp sgt i32 %3, 0
  %5 = zext i1 %4 to i8
  ret i8 %5
}

; Function Attrs: mustprogress uwtable
define void @_ZN6icu_7712RegexMatcher13setStackLimitEiR10UErrorCode(ptr noundef nonnull align 8 dereferenceable(336) %0, i32 noundef %1, ptr noundef nonnull align 4 dereferenceable(4) %2) unnamed_addr #1 align 2 {
  %4 = alloca ptr, align 8
  %5 = alloca i32, align 4
  %6 = alloca ptr, align 8
  %7 = alloca i32, align 4
  store ptr %0, ptr %4, align 8, !tbaa !23
  store i32 %1, ptr %5, align 4, !tbaa !14
  store ptr %2, ptr %6, align 8, !tbaa !22
  %8 = load ptr, ptr %4, align 8
  %9 = load ptr, ptr %6, align 8, !tbaa !22
  %10 = load i32, ptr %9, align 4, !tbaa !15
  %11 = call noundef signext i8 @_ZL9U_FAILURE10UErrorCode(i32 noundef %10)
  %12 = icmp ne i8 %11, 0
  br i1 %12, label %13, label %14

13:                                               ; preds = %3
  br label %58

14:                                               ; preds = %3
  %15 = getelementptr inbounds nuw %"class.icu_77::RegexMatcher", ptr %8, i32 0, i32 39
  %16 = load i32, ptr %15, align 4, !tbaa !29
  %17 = call noundef signext i8 @_ZL9U_FAILURE10UErrorCode(i32 noundef %16)
  %18 = icmp ne i8 %17, 0
  br i1 %18, label %19, label %23

19:                                               ; preds = %14
  %20 = getelementptr inbounds nuw %"class.icu_77::RegexMatcher", ptr %8, i32 0, i32 39
  %21 = load i32, ptr %20, align 4, !tbaa !29
  %22 = load ptr, ptr %6, align 8, !tbaa !22
  store i32 %21, ptr %22, align 4, !tbaa !15
  br label %58

23:                                               ; preds = %14
  %24 = load i32, ptr %5, align 4, !tbaa !14
  %25 = icmp slt i32 %24, 0
  br i1 %25, label %26, label %28

26:                                               ; preds = %23
  %27 = load ptr, ptr %6, align 8, !tbaa !22
  store i32 1, ptr %27, align 4, !tbaa !15
  br label %58

28:                                               ; preds = %23
  %29 = call noundef nonnull align 8 dereferenceable(336) ptr @_ZN6icu_7712RegexMatcher5resetEv(ptr noundef nonnull align 8 dereferenceable(336) %8)
  %30 = load i32, ptr %5, align 4, !tbaa !14
  %31 = icmp eq i32 %30, 0
  br i1 %31, label %32, label %35

32:                                               ; preds = %28
  %33 = getelementptr inbounds nuw %"class.icu_77::RegexMatcher", ptr %8, i32 0, i32 25
  %34 = load ptr, ptr %33, align 8, !tbaa !73
  call void @_ZN6icu_779UVector6414setMaxCapacityEi(ptr noundef nonnull align 8 dereferenceable(32) %34, i32 noundef 0)
  br label %55

35:                                               ; preds = %28
  call void @llvm.lifetime.start.p0(i64 4, ptr %7) #11
  %36 = load i32, ptr %5, align 4, !tbaa !14
  %37 = sext i32 %36 to i64
  %38 = udiv i64 %37, 4
  %39 = trunc i64 %38 to i32
  store i32 %39, ptr %7, align 4, !tbaa !14
  %40 = load i32, ptr %7, align 4, !tbaa !14
  %41 = getelementptr inbounds nuw %"class.icu_77::RegexMatcher", ptr %8, i32 0, i32 1
  %42 = load ptr, ptr %41, align 8, !tbaa !38
  %43 = getelementptr inbounds nuw %"class.icu_77::RegexPattern", ptr %42, i32 0, i32 10
  %44 = load i32, ptr %43, align 8, !tbaa !102
  %45 = icmp slt i32 %40, %44
  br i1 %45, label %46, label %51

46:                                               ; preds = %35
  %47 = getelementptr inbounds nuw %"class.icu_77::RegexMatcher", ptr %8, i32 0, i32 1
  %48 = load ptr, ptr %47, align 8, !tbaa !38
  %49 = getelementptr inbounds nuw %"class.icu_77::RegexPattern", ptr %48, i32 0, i32 10
  %50 = load i32, ptr %49, align 8, !tbaa !102
  store i32 %50, ptr %7, align 4, !tbaa !14
  br label %51

51:                                               ; preds = %46, %35
  %52 = getelementptr inbounds nuw %"class.icu_77::RegexMatcher", ptr %8, i32 0, i32 25
  %53 = load ptr, ptr %52, align 8, !tbaa !73
  %54 = load i32, ptr %7, align 4, !tbaa !14
  call void @_ZN6icu_779UVector6414setMaxCapacityEi(ptr noundef nonnull align 8 dereferenceable(32) %53, i32 noundef %54)
  call void @llvm.lifetime.end.p0(i64 4, ptr %7) #11
  br label %55

55:                                               ; preds = %51, %32
  %56 = load i32, ptr %5, align 4, !tbaa !14
  %57 = getelementptr inbounds nuw %"class.icu_77::RegexMatcher", ptr %8, i32 0, i32 32
  store i32 %56, ptr %57, align 4, !tbaa !78
  br label %58

58:                                               ; preds = %55, %26, %19, %13
  ret void
}