; Function Attrs: mustprogress uwtable
define void @_ZN6icu_7712RegexMatcher13setStackLimitEiR10UErrorCode(ptr noundef nonnull align 8 captures(none) dereferenceable(336) %0, i32 noundef %1, ptr noundef nonnull align 4 captures(none) dereferenceable(4) %2) unnamed_addr #1 align 2 {
  %4 = load i32, ptr %2, align 4, !tbaa !13
  %5 = icmp slt i32 %4, 1
  br i1 %5, label %6, label %44

6:                                                ; preds = %3
  %7 = getelementptr inbounds nuw i8, ptr %0, i64 316
  %8 = load i32, ptr %7, align 4, !tbaa !39
  %9 = icmp slt i32 %8, 1
  br i1 %9, label %11, label %10

10:                                               ; preds = %6
  store i32 %8, ptr %2, align 4, !tbaa !13
  br label %44

11:                                               ; preds = %6
  %12 = icmp slt i32 %1, 0
  br i1 %12, label %13, label %14

13:                                               ; preds = %11
  store i32 1, ptr %2, align 4, !tbaa !13
  br label %44

14:                                               ; preds = %11
  %15 = getelementptr inbounds nuw i8, ptr %0, i64 64
  store i64 0, ptr %15, align 8, !tbaa !65
  %16 = getelementptr inbounds nuw i8, ptr %0, i64 48
  %17 = load i64, ptr %16, align 8, !tbaa !66
  %18 = getelementptr inbounds nuw i8, ptr %0, i64 72
  store i64 %17, ptr %18, align 8, !tbaa !67
  %19 = getelementptr inbounds nuw i8, ptr %0, i64 112
  store i64 0, ptr %19, align 8, !tbaa !68
  %20 = getelementptr inbounds nuw i8, ptr %0, i64 120
  store i64 %17, ptr %20, align 8, !tbaa !69
  %21 = getelementptr inbounds nuw i8, ptr %0, i64 80
  store i64 0, ptr %21, align 8, !tbaa !70
  %22 = getelementptr inbounds nuw i8, ptr %0, i64 88
  store i64 %17, ptr %22, align 8, !tbaa !71
  %23 = getelementptr inbounds nuw i8, ptr %0, i64 96
  store i64 0, ptr %23, align 8, !tbaa !72
  %24 = getelementptr inbounds nuw i8, ptr %0, i64 104
  store i64 %17, ptr %24, align 8, !tbaa !73
  %25 = getelementptr inbounds nuw i8, ptr %0, i64 136
  %26 = getelementptr inbounds nuw i8, ptr %0, i64 152
  tail call void @llvm.memset.p0.i64(ptr noundef nonnull align 8 dereferenceable(16) %25, i8 0, i64 16, i1 false)
  store i64 -1, ptr %26, align 8, !tbaa !30
  %27 = getelementptr inbounds nuw i8, ptr %0, i64 160
  store i64 0, ptr %27, align 8, !tbaa !31
  %28 = getelementptr inbounds nuw i8, ptr %0, i64 130
  store i8 0, ptr %28, align 2, !tbaa !29
  %29 = getelementptr inbounds nuw i8, ptr %0, i64 168
  store i8 0, ptr %29, align 8, !tbaa !32
  %30 = getelementptr inbounds nuw i8, ptr %0, i64 169
  store i8 0, ptr %30, align 1, !tbaa !33
  %31 = getelementptr inbounds nuw i8, ptr %0, i64 268
  store i32 0, ptr %31, align 4, !tbaa !35
  %32 = getelementptr inbounds nuw i8, ptr %0, i64 272
  store i32 10000, ptr %32, align 8, !tbaa !36
  %33 = icmp eq i32 %1, 0
  br i1 %33, label %40, label %34

34:                                               ; preds = %14
  %35 = lshr i32 %1, 2
  %36 = getelementptr inbounds nuw i8, ptr %0, i64 8
  %37 = load ptr, ptr %36, align 8, !tbaa !42
  %38 = getelementptr inbounds nuw i8, ptr %37, i64 128
  %39 = load i32, ptr %38, align 8, !tbaa !74
  %spec.select = tail call i32 @llvm.smax.i32(i32 %35, i32 %39)
  br label %40

40:                                               ; preds = %14, %34
  %spec.select.sink = phi i32 [ %spec.select, %34 ], [ 0, %14 ]
  %41 = getelementptr inbounds nuw i8, ptr %0, i64 176
  %42 = load ptr, ptr %41, align 8, !tbaa !64
  tail call void @_ZN6icu_779UVector6414setMaxCapacityEi(ptr noundef nonnull align 8 dereferenceable(32) %42, i32 noundef %spec.select.sink)
  %43 = getelementptr inbounds nuw i8, ptr %0, i64 276
  store i32 %1, ptr %43, align 4, !tbaa !37
  br label %44

44:                                               ; preds = %3, %40, %13, %10
  ret void
}